; Function Attrs: mustprogress uwtable
define void @_ZN7rocksdb16TtlMergeOperator14PrepareOptionsERKNS_13ConfigOptionsE(ptr noalias sret(%"class.rocksdb::Status") align 8 %agg.result, ptr noundef nonnull align 8 dereferenceable(56) %this, ptr noundef nonnull align 8 dereferenceable(80) %config_options) unnamed_addr #2 align 2 {
entry:
  %clock_ = getelementptr inbounds i8, ptr %this, i64 48
  %0 = load ptr, ptr %clock_, align 8
  %cmp = icmp eq ptr %0, null
  br i1 %cmp, label %if.then, label %if.end

if.then:                                          ; preds = %entry
  %env = getelementptr inbounds i8, ptr %config_options, i64 56
  %1 = load ptr, ptr %env, align 8
  %call = tail call noundef nonnull align 8 dereferenceable(16) ptr @_ZNK7rocksdb3Env14GetSystemClockEv(ptr noundef nonnull align 8 dereferenceable(72) %1)
  %2 = load ptr, ptr %call, align 8
  store ptr %2, ptr %clock_, align 8
  br label %if.end

if.end:                                           ; preds = %if.then, %entry
  tail call void @_ZN7rocksdb12Configurable14PrepareOptionsERKNS_13ConfigOptionsE(ptr sret(%"class.rocksdb::Status") align 8 %agg.result, ptr noundef nonnull align 8 dereferenceable(32) %this, ptr noundef nonnull align 8 dereferenceable(80) %config_options)
  ret void
}